target datalayout = "e-m:e-p270:32:32-p271:32:32-p272:64:64-i64:64-i128:128-f80:128-n8:16:32:64-S128"
target triple = "x86_64-pc-linux-gnu"

%struct.H5O_ainfo_t = type { i8, i8, i32, i64, i64, i64, i64 }

@H5O_init_g = external global i8, align 1
@H5_libterm_g = external global i8, align 1
@.str.1 = private unnamed_addr constant [102 x i8] c"generated/home/dtcxzyw/WorkSpace/Projects/compilers/llvm-opt-benchmark/bench/hdf5/hdf5/src/H5Oainfo.c\00", align 1
@__func__.H5O__ainfo_post_copy_file = private unnamed_addr constant [26 x i8] c"H5O__ainfo_post_copy_file\00", align 1
@H5E_ATTR_g = external global i64, align 8
@H5E_CANTCOPY_g = external global i64, align 8
@.str.10 = private unnamed_addr constant [21 x i8] c"can't copy attribute\00", align 1

; Function Attrs: nounwind uwtable
define internal i32 @H5O__ainfo_post_copy_file(ptr noundef %0, ptr noundef %1, ptr noundef %2, ptr noundef %3, ptr noundef %4, ptr noundef %5) #0 {
  %7 = alloca ptr, align 8
  %8 = alloca ptr, align 8
  %9 = alloca ptr, align 8
  %10 = alloca ptr, align 8
  %11 = alloca ptr, align 8
  %12 = alloca ptr, align 8
  %13 = alloca ptr, align 8
  %14 = alloca i32, align 4
  %15 = alloca i8, align 1
  store ptr %0, ptr %7, align 8, !tbaa !43
  store ptr %1, ptr %8, align 8, !tbaa !20
  store ptr %2, ptr %9, align 8, !tbaa !43
  store ptr %3, ptr %10, align 8, !tbaa !20
  store ptr %4, ptr %11, align 8, !tbaa !12
  store ptr %5, ptr %12, align 8, !tbaa !37
  call void @llvm.lifetime.start.p0(i64 8, ptr %13) #6
  %16 = load ptr, ptr %8, align 8, !tbaa !20
  store ptr %16, ptr %13, align 8, !tbaa !18
  call void @llvm.lifetime.start.p0(i64 4, ptr %14) #6
  store i32 0, ptr %14, align 4, !tbaa !10
  call void @llvm.lifetime.start.p0(i64 1, ptr %15) #6
  store i8 0, ptr %15, align 1, !tbaa !21
  %17 = load i8, ptr @H5O_init_g, align 1, !tbaa !21, !range !23, !noundef !24
  %18 = trunc i8 %17 to i1
  br i1 %18, label %23, label %19

19:                                               ; preds = %6
  %20 = load i8, ptr @H5_libterm_g, align 1, !tbaa !21, !range !23, !noundef !24
  %21 = trunc i8 %20 to i1
  %22 = xor i1 %21, true
  br label %23

23:                                               ; preds = %19, %6
  %24 = phi i1 [ true, %6 ], [ %22, %19 ]
  %25 = xor i1 %24, true
  %26 = xor i1 %25, true
  %27 = zext i1 %26 to i32
  %28 = sext i32 %27 to i64
  %29 = call i64 @llvm.expect.i64(i64 %28, i64 1)
  %30 = icmp ne i64 %29, 0
  br i1 %30, label %31, label %66

31:                                               ; preds = %23
  %32 = load ptr, ptr %13, align 8, !tbaa !18
  %33 = getelementptr inbounds nuw %struct.H5O_ainfo_t, ptr %32, i32 0, i32 5
  %34 = load i64, ptr %33, align 8, !tbaa !32
  %35 = icmp ne i64 %34, -1
  br i1 %35, label %36, label %64

36:                                               ; preds = %31
  %37 = load ptr, ptr %7, align 8, !tbaa !43
  %38 = load ptr, ptr %13, align 8, !tbaa !18
  %39 = load ptr, ptr %9, align 8, !tbaa !43
  %40 = load ptr, ptr %10, align 8, !tbaa !20
  %41 = load ptr, ptr %12, align 8, !tbaa !37
  %42 = call i32 @H5A__dense_post_copy_file_all(ptr noundef %37, ptr noundef %38, ptr noundef %39, ptr noundef %40, ptr noundef %41)
  %43 = icmp slt i32 %42, 0
  br i1 %43, label %44, label %63

44:                                               ; preds = %36
  br label %45

45:                                               ; preds = %44
  br label %46

46:                                               ; preds = %45
  br label %47

47:                                               ; preds = %46
  %48 = load i64, ptr @H5E_ATTR_g, align 8, !tbaa !14
  %49 = load i64, ptr @H5E_CANTCOPY_g, align 8, !tbaa !14
  %50 = call i32 (ptr, ptr, i32, i64, i64, ptr, ...) @H5E_printf_stack(ptr noundef @.str.1, ptr noundef @__func__.H5O__ainfo_post_copy_file, i32 noundef 465, i64 noundef %48, i64 noundef %49, ptr noundef @.str.10)
  br label %51

51:                                               ; preds = %47
  br label %52

52:                                               ; preds = %51
  store i8 1, ptr %15, align 1, !tbaa !21
  %53 = load i8, ptr %15, align 1, !tbaa !21, !range !23, !noundef !24
  %54 = trunc i8 %53 to i1
  %55 = zext i1 %54 to i8
  store i8 %55, ptr %15, align 1, !tbaa !21
  br label %56

56:                                               ; preds = %52
  br label %57

57:                                               ; preds = %56
  br label %58

58:                                               ; preds = %57
  store i32 -1, ptr %14, align 4, !tbaa !10
  br label %65

59:                                               ; No predecessors!
  br label %60

60:                                               ; preds = %59
  br label %61

61:                                               ; preds = %60
  br label %62

62:                                               ; preds = %61
  br label %63

63:                                               ; preds = %62, %36
  br label %64

64:                                               ; preds = %63, %31
  br label %65

65:                                               ; preds = %64, %58
  br label %66

66:                                               ; preds = %65, %23
  %67 = load i32, ptr %14, align 4, !tbaa !10
  call void @llvm.lifetime.end.p0(i64 1, ptr %15) #6
  call void @llvm.lifetime.end.p0(i64 4, ptr %14) #6
  call void @llvm.lifetime.end.p0(i64 8, ptr %13) #6
  ret i32 %67
}