; Function Attrs: nounwind uwtable
define internal range(i32 -1, 1) i32 @H5O__ainfo_post_copy_file(ptr noundef %0, ptr noundef %1, ptr noundef %2, ptr noundef %3, ptr readnone captures(none) %4, ptr noundef %5) #0 {
  %7 = load i8, ptr @H5O_init_g, align 1, !tbaa !3, !range !7, !noundef !8
  %8 = trunc nuw i8 %7 to i1
  %9 = load i8, ptr @H5_libterm_g, align 1, !range !7
  %10 = trunc nuw i8 %9 to i1
  %11 = xor i1 %10, true
  %12 = select i1 %8, i1 true, i1 %11
  br i1 %12, label %13, label %23, !prof !9

13:                                               ; preds = %6
  %14 = getelementptr inbounds nuw i8, ptr %1, i64 24
  %15 = load i64, ptr %14, align 8, !tbaa !23
  %.not = icmp eq i64 %15, -1
  br i1 %.not, label %23, label %16

16:                                               ; preds = %13
  %17 = tail call i32 @H5A__dense_post_copy_file_all(ptr noundef %0, ptr noundef nonnull %1, ptr noundef %2, ptr noundef %3, ptr noundef %5) #7
  %18 = icmp slt i32 %17, 0
  br i1 %18, label %19, label %23

19:                                               ; preds = %16
  %20 = load i64, ptr @H5E_ATTR_g, align 8, !tbaa !10
  %21 = load i64, ptr @H5E_CANTCOPY_g, align 8, !tbaa !10
  %22 = tail call i32 (ptr, ptr, i32, i64, i64, ptr, ...) @H5E_printf_stack(ptr noundef nonnull @.str.1, ptr noundef nonnull @__func__.H5O__ainfo_post_copy_file, i32 noundef 465, i64 noundef %20, i64 noundef %21, ptr noundef nonnull @.str.10) #7
  br label %23

23:                                               ; preds = %19, %16, %13, %6
  %.0 = phi i32 [ -1, %19 ], [ 0, %16 ], [ 0, %13 ], [ 0, %6 ]
  ret i32 %.0
}